; Function Attrs: mustprogress nofree nosync nounwind memory(readwrite, inaccessiblemem: none) uwtable
define internal fastcc void @"_ZSt21__inplace_stable_sortIPN4llvm11reassociate6FactorEN9__gnu_cxx5__ops15_Iter_comp_iterIZL22collectMultiplyFactorsRNS0_15SmallVectorImplINS1_10ValueEntryEEERNS7_IS2_EEE3$_0EEEvT_SF_T0_"(ptr noundef %0, ptr noundef %1) unnamed_addr #12 {
  %3 = alloca %"struct.llvm::reassociate::Factor", align 8
  %4 = ptrtoint ptr %1 to i64
  %5 = ptrtoint ptr %0 to i64
  %6 = sub i64 %4, %5
  %7 = ashr exact i64 %6, 4
  %8 = icmp slt i64 %7, 15
  br i1 %8, label %9, label %28

9:                                                ; preds = %2
  call void @llvm.lifetime.start.p0(i64 16, ptr nonnull %3)
  %10 = icmp eq ptr %0, %1
  br i1 %10, label %"_ZSt16__insertion_sortIPN4llvm11reassociate6FactorEN9__gnu_cxx5__ops15_Iter_comp_iterIZL22collectMultiplyFactorsRNS0_15SmallVectorImplINS1_10ValueEntryEEERNS7_IS2_EEE3$_0EEEvT_SF_T0_.exit", label %.preheader.i

.preheader.i:                                     ; preds = %9
  %.016.i = getelementptr inbounds nuw i8, ptr %0, i64 16
  %.not17.i = icmp eq ptr %.016.i, %1
  br i1 %.not17.i, label %"_ZSt16__insertion_sortIPN4llvm11reassociate6FactorEN9__gnu_cxx5__ops15_Iter_comp_iterIZL22collectMultiplyFactorsRNS0_15SmallVectorImplINS1_10ValueEntryEEERNS7_IS2_EEE3$_0EEEvT_SF_T0_.exit", label %.lr.ph.i

.lr.ph.i:                                         ; preds = %.preheader.i
  %11 = getelementptr i8, ptr %0, i64 8
  br label %12

12:                                               ; preds = %27, %.lr.ph.i
  %.019.i = phi ptr [ %.016.i, %.lr.ph.i ], [ %.0.i, %27 ]
  %.pn18.i = phi ptr [ %0, %.lr.ph.i ], [ %.019.i, %27 ]
  %13 = getelementptr i8, ptr %.pn18.i, i64 24
  %.0.val.i = load i32, ptr %13, align 8
  %.val.i = load i32, ptr %11, align 8
  %14 = icmp ugt i32 %.0.val.i, %.val.i
  br i1 %14, label %15, label %22

15:                                               ; preds = %12
  call void @llvm.memcpy.p0.p0.i64(ptr noundef nonnull align 8 dereferenceable(16) %3, ptr noundef nonnull align 8 dereferenceable(16) %.019.i, i64 16, i1 false)
  %16 = getelementptr inbounds nuw i8, ptr %.pn18.i, i64 32
  %17 = ptrtoint ptr %.019.i to i64
  %18 = sub i64 %17, %5
  %19 = ashr exact i64 %18, 4
  %20 = sub nsw i64 0, %19
  %21 = getelementptr inbounds %"struct.llvm::reassociate::Factor", ptr %16, i64 %20
  tail call void @llvm.memmove.p0.p0.i64(ptr noundef nonnull align 8 dereferenceable(1) %21, ptr noundef nonnull align 8 dereferenceable(1) %0, i64 %18, i1 false)
  call void @llvm.memcpy.p0.p0.i64(ptr noundef nonnull align 8 dereferenceable(12) %0, ptr noundef nonnull align 8 dereferenceable(12) %3, i64 12, i1 false)
  br label %27

22:                                               ; preds = %12
  %.sroa.0.0.copyload.i.i = load ptr, ptr %.019.i, align 8
  %23 = getelementptr i8, ptr %.pn18.i, i64 8
  %.0.val12.i.i = load i32, ptr %23, align 8
  %24 = icmp ugt i32 %.0.val.i, %.0.val12.i.i
  br i1 %24, label %.lr.ph.i.i, label %"_ZSt25__unguarded_linear_insertIPN4llvm11reassociate6FactorEN9__gnu_cxx5__ops14_Val_comp_iterIZL22collectMultiplyFactorsRNS0_15SmallVectorImplINS1_10ValueEntryEEERNS7_IS2_EEE3$_0EEEvT_T0_.exit.i"

.lr.ph.i.i:                                       ; preds = %22, %.lr.ph.i.i
  %.0913.i.i = phi ptr [ %.0.i.i, %.lr.ph.i.i ], [ %.019.i, %22 ]
  %.0.i.i = getelementptr inbounds i8, ptr %.0913.i.i, i64 -16
  tail call void @llvm.memcpy.p0.p0.i64(ptr noundef nonnull align 8 dereferenceable(12) %.0913.i.i, ptr noundef nonnull align 8 dereferenceable(12) %.0.i.i, i64 12, i1 false)
  %25 = getelementptr i8, ptr %.0913.i.i, i64 -24
  %.0.val.i.i = load i32, ptr %25, align 8
  %26 = icmp ugt i32 %.0.val.i, %.0.val.i.i
  br i1 %26, label %.lr.ph.i.i, label %"_ZSt25__unguarded_linear_insertIPN4llvm11reassociate6FactorEN9__gnu_cxx5__ops14_Val_comp_iterIZL22collectMultiplyFactorsRNS0_15SmallVectorImplINS1_10ValueEntryEEERNS7_IS2_EEE3$_0EEEvT_T0_.exit.i", !llvm.loop !338

"_ZSt25__unguarded_linear_insertIPN4llvm11reassociate6FactorEN9__gnu_cxx5__ops14_Val_comp_iterIZL22collectMultiplyFactorsRNS0_15SmallVectorImplINS1_10ValueEntryEEERNS7_IS2_EEE3$_0EEEvT_T0_.exit.i": ; preds = %.lr.ph.i.i, %22
  %.09.lcssa.i.i = phi ptr [ %.019.i, %22 ], [ %.0.i.i, %.lr.ph.i.i ]
  store ptr %.sroa.0.0.copyload.i.i, ptr %.09.lcssa.i.i, align 8
  %.sroa.2.0..09.sroa_idx.i.i = getelementptr inbounds nuw i8, ptr %.09.lcssa.i.i, i64 8
  store i32 %.0.val.i, ptr %.sroa.2.0..09.sroa_idx.i.i, align 8
  br label %27

27:                                               ; preds = %"_ZSt25__unguarded_linear_insertIPN4llvm11reassociate6FactorEN9__gnu_cxx5__ops14_Val_comp_iterIZL22collectMultiplyFactorsRNS0_15SmallVectorImplINS1_10ValueEntryEEERNS7_IS2_EEE3$_0EEEvT_T0_.exit.i", %15
  %.0.i = getelementptr inbounds nuw i8, ptr %.019.i, i64 16
  %.not.i = icmp eq ptr %.0.i, %1
  br i1 %.not.i, label %"_ZSt16__insertion_sortIPN4llvm11reassociate6FactorEN9__gnu_cxx5__ops15_Iter_comp_iterIZL22collectMultiplyFactorsRNS0_15SmallVectorImplINS1_10ValueEntryEEERNS7_IS2_EEE3$_0EEEvT_SF_T0_.exit", label %12, !llvm.loop !339

"_ZSt16__insertion_sortIPN4llvm11reassociate6FactorEN9__gnu_cxx5__ops15_Iter_comp_iterIZL22collectMultiplyFactorsRNS0_15SmallVectorImplINS1_10ValueEntryEEERNS7_IS2_EEE3$_0EEEvT_SF_T0_.exit": ; preds = %27, %9, %.preheader.i
  call void @llvm.lifetime.end.p0(i64 16, ptr nonnull %3)
  br label %common.ret25

common.ret25:                                     ; preds = %28, %"_ZSt16__insertion_sortIPN4llvm11reassociate6FactorEN9__gnu_cxx5__ops15_Iter_comp_iterIZL22collectMultiplyFactorsRNS0_15SmallVectorImplINS1_10ValueEntryEEERNS7_IS2_EEE3$_0EEEvT_SF_T0_.exit"
  ret void

28:                                               ; preds = %2
  %29 = lshr i64 %7, 1
  %30 = getelementptr inbounds nuw %"struct.llvm::reassociate::Factor", ptr %0, i64 %29
  tail call fastcc void @"_ZSt21__inplace_stable_sortIPN4llvm11reassociate6FactorEN9__gnu_cxx5__ops15_Iter_comp_iterIZL22collectMultiplyFactorsRNS0_15SmallVectorImplINS1_10ValueEntryEEERNS7_IS2_EEE3$_0EEEvT_SF_T0_"(ptr noundef %0, ptr noundef %30)
  tail call fastcc void @"_ZSt21__inplace_stable_sortIPN4llvm11reassociate6FactorEN9__gnu_cxx5__ops15_Iter_comp_iterIZL22collectMultiplyFactorsRNS0_15SmallVectorImplINS1_10ValueEntryEEERNS7_IS2_EEE3$_0EEEvT_SF_T0_"(ptr noundef %30, ptr noundef %1)
  %31 = ptrtoint ptr %30 to i64
  %32 = sub i64 %4, %31
  %33 = ashr exact i64 %32, 4
  tail call fastcc void @"_ZSt22__merge_without_bufferIPN4llvm11reassociate6FactorElN9__gnu_cxx5__ops15_Iter_comp_iterIZL22collectMultiplyFactorsRNS0_15SmallVectorImplINS1_10ValueEntryEEERNS7_IS2_EEE3$_0EEEvT_SF_SF_T0_SG_T1_"(ptr noundef %0, ptr noundef %30, ptr noundef %1, i64 noundef %29, i64 noundef %33)
  br label %common.ret25
}